; Function Attrs: mustprogress uwtable
define noundef zeroext i1 @_ZNK32pxrInternal_v0_24__pxrReserved__7UsdPrim6HasAPIERKNS_7TfTokenEj(ptr nocapture noundef nonnull readonly align 8 dereferenceable(32) %0, ptr noundef nonnull align 8 dereferenceable(8) %1, i32 noundef %2) local_unnamed_addr #0 align 2 personality ptr @__gxx_personality_v0 {
  %4 = alloca %"class.std::vector.78", align 8
  %5 = tail call noundef ptr @_ZN32pxrInternal_v0_24__pxrReserved__17UsdSchemaRegistry14FindSchemaInfoERKNS_7TfTokenEj(ptr noundef nonnull align 8 dereferenceable(8) %1, i32 noundef %2)
  call void @llvm.lifetime.start.p0(i64 24, ptr nonnull %4)
  %.not.i = icmp eq ptr %5, null
  br i1 %.not.i, label %_ZNK32pxrInternal_v0_24__pxrReserved__7UsdPrim7_HasAPIEPKNS_17UsdSchemaRegistry10SchemaInfoE.exit, label %6

6:                                                ; preds = %3
  call void @_ZNK32pxrInternal_v0_24__pxrReserved__7UsdPrim17GetAppliedSchemasEv(ptr dead_on_unwind nonnull writable sret(%"class.std::vector.78") align 8 %4, ptr noundef nonnull readonly align 8 dereferenceable(32) %0)
  %7 = load ptr, ptr %4, align 8
  %8 = getelementptr inbounds nuw i8, ptr %4, i64 8
  %9 = load ptr, ptr %8, align 8
  %10 = icmp eq ptr %7, %9
  br i1 %10, label %_ZSt8_DestroyIPN32pxrInternal_v0_24__pxrReserved__7TfTokenES1_EvT_S3_RSaIT0_E.exit.i.i, label %11

11:                                               ; preds = %6
  %12 = invoke fastcc noundef zeroext i1 @_ZN32pxrInternal_v0_24__pxrReserved__L25_IsSchemaInAppliedSchemasERKSt6vectorINS_7TfTokenESaIS1_EERKNS_17UsdSchemaRegistry10SchemaInfoE(ptr %7, ptr %9, ptr noundef nonnull align 8 dereferenceable(32) %5)
          to label %.lr.ph.i.i.i.i.i unwind label %13

13:                                               ; preds = %11
  %14 = landingpad { ptr, i32 }
          cleanup
  call void @_ZNSt6vectorIN32pxrInternal_v0_24__pxrReserved__7TfTokenESaIS1_EED2Ev(ptr noundef nonnull align 8 dereferenceable(24) %4) #18
  resume { ptr, i32 } %14

.lr.ph.i.i.i.i.i:                                 ; preds = %11, %_ZSt8_DestroyIN32pxrInternal_v0_24__pxrReserved__7TfTokenEEvPT_.exit.i.i.i.i.i
  %.05.i.i.i.i.i = phi ptr [ %22, %_ZSt8_DestroyIN32pxrInternal_v0_24__pxrReserved__7TfTokenEEvPT_.exit.i.i.i.i.i ], [ %7, %11 ]
  %15 = load ptr, ptr %.05.i.i.i.i.i, align 8
  %16 = ptrtoint ptr %15 to i64
  %17 = and i64 %16, 7
  %.not.i.i.i.i.i.i.i.i = icmp eq i64 %17, 0
  br i1 %.not.i.i.i.i.i.i.i.i, label %_ZSt8_DestroyIN32pxrInternal_v0_24__pxrReserved__7TfTokenEEvPT_.exit.i.i.i.i.i, label %18

18:                                               ; preds = %.lr.ph.i.i.i.i.i
  %19 = and i64 %16, -8
  %20 = inttoptr i64 %19 to ptr
  %21 = atomicrmw sub ptr %20, i32 2 release, align 4
  br label %_ZSt8_DestroyIN32pxrInternal_v0_24__pxrReserved__7TfTokenEEvPT_.exit.i.i.i.i.i

_ZSt8_DestroyIN32pxrInternal_v0_24__pxrReserved__7TfTokenEEvPT_.exit.i.i.i.i.i: ; preds = %18, %.lr.ph.i.i.i.i.i
  %22 = getelementptr inbounds i8, ptr %.05.i.i.i.i.i, i64 8
  %.not.i.i.i.i.i = icmp eq ptr %22, %9
  br i1 %.not.i.i.i.i.i, label %_ZSt8_DestroyIPN32pxrInternal_v0_24__pxrReserved__7TfTokenES1_EvT_S3_RSaIT0_E.exitthread-pre-split.i.i, label %.lr.ph.i.i.i.i.i, !llvm.loop !33

_ZSt8_DestroyIPN32pxrInternal_v0_24__pxrReserved__7TfTokenES1_EvT_S3_RSaIT0_E.exitthread-pre-split.i.i: ; preds = %_ZSt8_DestroyIN32pxrInternal_v0_24__pxrReserved__7TfTokenEEvPT_.exit.i.i.i.i.i
  %.pr.i.i = load ptr, ptr %4, align 8
  br label %_ZSt8_DestroyIPN32pxrInternal_v0_24__pxrReserved__7TfTokenES1_EvT_S3_RSaIT0_E.exit.i.i

_ZSt8_DestroyIPN32pxrInternal_v0_24__pxrReserved__7TfTokenES1_EvT_S3_RSaIT0_E.exit.i.i: ; preds = %_ZSt8_DestroyIPN32pxrInternal_v0_24__pxrReserved__7TfTokenES1_EvT_S3_RSaIT0_E.exitthread-pre-split.i.i, %6
  %.18.i = phi i1 [ %12, %_ZSt8_DestroyIPN32pxrInternal_v0_24__pxrReserved__7TfTokenES1_EvT_S3_RSaIT0_E.exitthread-pre-split.i.i ], [ false, %6 ]
  %23 = phi ptr [ %.pr.i.i, %_ZSt8_DestroyIPN32pxrInternal_v0_24__pxrReserved__7TfTokenES1_EvT_S3_RSaIT0_E.exitthread-pre-split.i.i ], [ %7, %6 ]
  %.not.i.i.i.i = icmp eq ptr %23, null
  br i1 %.not.i.i.i.i, label %_ZNK32pxrInternal_v0_24__pxrReserved__7UsdPrim7_HasAPIEPKNS_17UsdSchemaRegistry10SchemaInfoE.exit, label %24

24:                                               ; preds = %_ZSt8_DestroyIPN32pxrInternal_v0_24__pxrReserved__7TfTokenES1_EvT_S3_RSaIT0_E.exit.i.i
  %25 = getelementptr inbounds nuw i8, ptr %4, i64 16
  %26 = load ptr, ptr %25, align 8
  %27 = ptrtoint ptr %26 to i64
  %28 = ptrtoint ptr %23 to i64
  %29 = sub i64 %27, %28
  tail call void @_ZdlPvm(ptr noundef nonnull %23, i64 noundef %29) #25
  br label %_ZNK32pxrInternal_v0_24__pxrReserved__7UsdPrim7_HasAPIEPKNS_17UsdSchemaRegistry10SchemaInfoE.exit

_ZNK32pxrInternal_v0_24__pxrReserved__7UsdPrim7_HasAPIEPKNS_17UsdSchemaRegistry10SchemaInfoE.exit: ; preds = %3, %_ZSt8_DestroyIPN32pxrInternal_v0_24__pxrReserved__7TfTokenES1_EvT_S3_RSaIT0_E.exit.i.i, %24
  %.0.i = phi i1 [ false, %3 ], [ %.18.i, %_ZSt8_DestroyIPN32pxrInternal_v0_24__pxrReserved__7TfTokenES1_EvT_S3_RSaIT0_E.exit.i.i ], [ %.18.i, %24 ]
  call void @llvm.lifetime.end.p0(i64 24, ptr nonnull %4)
  ret i1 %.0.i
}